; Function Attrs: nounwind uwtable
define void @Gia_ManDupAndConesLimit2_rec(ptr noundef %0, ptr noundef %1, i32 noundef %2, i32 noundef %3) local_unnamed_addr #1 {
  %5 = getelementptr i8, ptr %1, i64 32
  %.val = load ptr, ptr %5, align 8
  %6 = sext i32 %2 to i64
  %7 = getelementptr inbounds %struct.Gia_Obj_t_, ptr %.val, i64 %6
  %8 = getelementptr inbounds nuw i8, ptr %7, i64 8
  %9 = load i32, ptr %8, align 4
  %.not = icmp eq i32 %9, -1
  br i1 %.not, label %10, label %common.ret

10:                                               ; preds = %4
  %.val21 = load i64, ptr %7, align 4
  %11 = and i64 %.val21, 2147483648
  %.not.i = icmp ne i64 %11, 0
  %12 = and i64 %.val21, 536870911
  %13 = icmp eq i64 %12, 536870911
  %narrow.i.not = or i1 %.not.i, %13
  %14 = icmp slt i32 %3, 1
  %or.cond = or i1 %14, %narrow.i.not
  br i1 %or.cond, label %15, label %17

15:                                               ; preds = %10
  %16 = tail call fastcc i32 @Gia_ManAppendCi(ptr noundef %0)
  br label %common.ret.sink.split

common.ret.sink.split:                            ; preds = %17, %15
  %.sink = phi i32 [ %16, %15 ], [ %44, %17 ]
  store i32 %.sink, ptr %8, align 4
  br label %common.ret

common.ret:                                       ; preds = %common.ret.sink.split, %4
  ret void

17:                                               ; preds = %10
  %18 = trunc i64 %.val21 to i32
  %19 = and i32 %18, 536870911
  %20 = sub nsw i32 %2, %19
  %21 = add nsw i32 %3, -1
  tail call void @Gia_ManDupAndConesLimit2_rec(ptr noundef %0, ptr noundef nonnull %1, i32 noundef %20, i32 noundef %21)
  %.val23 = load i64, ptr %7, align 4
  %22 = lshr i64 %.val23, 32
  %23 = trunc nuw i64 %22 to i32
  %24 = and i32 %23, 536870911
  %25 = sub nsw i32 %2, %24
  tail call void @Gia_ManDupAndConesLimit2_rec(ptr noundef %0, ptr noundef nonnull %1, i32 noundef %25, i32 noundef %21)
  %26 = load i64, ptr %7, align 4
  %27 = and i64 %26, 536870911
  %28 = sub nsw i64 0, %27
  %29 = getelementptr inbounds %struct.Gia_Obj_t_, ptr %7, i64 %28, i32 1
  %30 = load i32, ptr %29, align 4
  %31 = trunc i64 %26 to i32
  %32 = lshr i32 %31, 29
  %33 = and i32 %32, 1
  %34 = xor i32 %33, %30
  %35 = lshr i64 %26, 32
  %36 = and i64 %35, 536870911
  %37 = sub nsw i64 0, %36
  %38 = getelementptr inbounds %struct.Gia_Obj_t_, ptr %7, i64 %37, i32 1
  %39 = load i32, ptr %38, align 4
  %40 = lshr i64 %26, 61
  %41 = trunc nuw nsw i64 %40 to i32
  %42 = and i32 %41, 1
  %43 = xor i32 %42, %39
  %44 = tail call fastcc i32 @Gia_ManAppendAnd(ptr noundef %0, i32 noundef %34, i32 noundef %43)
  br label %common.ret.sink.split
}